target datalayout = "e-m:e-p270:32:32-p271:32:32-p272:64:64-i64:64-i128:128-f80:128-n8:16:32:64-S128"
target triple = "x86_64-pc-linux-gnu"

@stderr = external global ptr, align 8
@.str.3 = private unnamed_addr constant [7 x i8] c"stdout\00", align 1
@g_lz4c_legacy_commands = internal global i32 0, align 4
@.str.59 = private unnamed_addr constant [5 x i8] c".lz4\00", align 1
@.str.69 = private unnamed_addr constant [2 x i8] c"\0A\00", align 1
@.str.116 = private unnamed_addr constant [30 x i8] c"****************************\0A\00", align 1
@.str.117 = private unnamed_addr constant [30 x i8] c"***** Advanced comment *****\0A\00", align 1
@.str.118 = private unnamed_addr constant [35 x i8] c"Which values can [output] have ? \0A\00", align 1
@.str.119 = private unnamed_addr constant [35 x i8] c"---------------------------------\0A\00", align 1
@.str.120 = private unnamed_addr constant [24 x i8] c"[output] : a filename \0A\00", align 1
@.str.121 = private unnamed_addr constant [56 x i8] c"          '%s', or '-' for standard output (pipe mode)\0A\00", align 1
@.str.122 = private unnamed_addr constant [47 x i8] c"          '%s' to discard output (test mode) \0A\00", align 1
@.str.123 = private unnamed_addr constant [5 x i8] c"null\00", align 1
@.str.124 = private unnamed_addr constant [77 x i8] c"[output] can be left empty. In this case, it receives the following value :\0A\00", align 1
@.str.125 = private unnamed_addr constant [67 x i8] c"          - if stdout is not the console, then [output] = stdout \0A\00", align 1
@.str.126 = private unnamed_addr constant [37 x i8] c"          - if stdout is console : \0A\00", align 1
@.str.127 = private unnamed_addr constant [57 x i8] c"               + for compression, output to filename%s \0A\00", align 1
@.str.128 = private unnamed_addr constant [69 x i8] c"               + for decompression, output to filename without '%s'\0A\00", align 1
@.str.129 = private unnamed_addr constant [72 x i8] c"                    > if input filename has no '%s' extension : error \0A\00", align 1
@.str.130 = private unnamed_addr constant [23 x i8] c"Compression levels : \0A\00", align 1
@.str.131 = private unnamed_addr constant [23 x i8] c"---------------------\0A\00", align 1
@.str.132 = private unnamed_addr constant [41 x i8] c"-0  => Default level, identical to -%u \0A\00", align 1
@.str.133 = private unnamed_addr constant [26 x i8] c"-1  => Fast compression \0A\00", align 1
@.str.134 = private unnamed_addr constant [77 x i8] c"-2 .. -%d => High compression; higher number == more compression but slower\0A\00", align 1
@.str.135 = private unnamed_addr constant [57 x i8] c"--best    => Highest available compression level (-%d) \0A\00", align 1
@.str.136 = private unnamed_addr constant [76 x i8] c"--fast=#  => Faster compression; higher number == faster but compress less\0A\00", align 1
@.str.137 = private unnamed_addr constant [34 x i8] c"stdin, stdout and the console : \0A\00", align 1
@.str.138 = private unnamed_addr constant [34 x i8] c"--------------------------------\0A\00", align 1
@.str.139 = private unnamed_addr constant [68 x i8] c"To protect the console from binary flooding (bad argument mistake)\0A\00", align 1
@.str.140 = private unnamed_addr constant [59 x i8] c"%s will refuse to read from console, or write to console \0A\00", align 1
@.str.141 = private unnamed_addr constant [66 x i8] c"except if '-c' command is specified, to force output to console \0A\00", align 1
@.str.142 = private unnamed_addr constant [18 x i8] c"Simple example :\0A\00", align 1
@.str.143 = private unnamed_addr constant [18 x i8] c"----------------\0A\00", align 1
@.str.144 = private unnamed_addr constant [72 x i8] c"1 : compress 'filename' fast, using default output name 'filename.lz4'\0A\00", align 1
@.str.145 = private unnamed_addr constant [23 x i8] c"          %s filename\0A\00", align 1
@.str.146 = private unnamed_addr constant [50 x i8] c"Short arguments can be aggregated. For example :\0A\00", align 1
@.str.147 = private unnamed_addr constant [36 x i8] c"----------------------------------\0A\00", align 1
@.str.148 = private unnamed_addr constant [78 x i8] c"2 : compress 'filename' in high compression mode, overwrite output if exists\0A\00", align 1
@.str.149 = private unnamed_addr constant [30 x i8] c"          %s -9 -f filename \0A\00", align 1
@.str.150 = private unnamed_addr constant [24 x i8] c"    is equivalent to :\0A\00", align 1
@.str.151 = private unnamed_addr constant [28 x i8] c"          %s -9f filename \0A\00", align 1
@.str.152 = private unnamed_addr constant [51 x i8] c"%s can be used in 'pure pipe mode'. For example :\0A\00", align 1
@.str.153 = private unnamed_addr constant [39 x i8] c"-------------------------------------\0A\00", align 1
@.str.154 = private unnamed_addr constant [70 x i8] c"3 : compress data stream from 'generator', send result to 'consumer'\0A\00", align 1
@.str.155 = private unnamed_addr constant [38 x i8] c"          generator | %s | consumer \0A\00", align 1
@.str.156 = private unnamed_addr constant [23 x i8] c"***** Warning  ***** \0A\00", align 1
@.str.157 = private unnamed_addr constant [48 x i8] c"Legacy arguments take precedence. Therefore : \0A\00", align 1
@.str.158 = private unnamed_addr constant [36 x i8] c"--------------------------------- \0A\00", align 1
@.str.159 = private unnamed_addr constant [28 x i8] c"          %s -hc filename \0A\00", align 1
@.str.160 = private unnamed_addr constant [53 x i8] c"means 'compress filename in high compression mode' \0A\00", align 1
@.str.161 = private unnamed_addr constant [28 x i8] c"It is not equivalent to : \0A\00", align 1
@.str.162 = private unnamed_addr constant [30 x i8] c"          %s -h -c filename \0A\00", align 1
@.str.163 = private unnamed_addr constant [37 x i8] c"which displays help text and exits \0A\00", align 1

; Function Attrs: nounwind uwtable
define internal i32 @usage_longhelp(ptr noundef %0) #0 {
  %2 = alloca ptr, align 8
  store ptr %0, ptr %2, align 8, !tbaa !11
  %3 = load ptr, ptr %2, align 8, !tbaa !11
  %4 = call i32 @usage_advanced(ptr noundef %3)
  %5 = load ptr, ptr @stderr, align 8, !tbaa !17
  %6 = call i32 (ptr, ptr, ...) @fprintf(ptr noundef %5, ptr noundef @.str.69) #12
  %7 = load ptr, ptr @stderr, align 8, !tbaa !17
  %8 = call i32 (ptr, ptr, ...) @fprintf(ptr noundef %7, ptr noundef @.str.116) #12
  %9 = load ptr, ptr @stderr, align 8, !tbaa !17
  %10 = call i32 (ptr, ptr, ...) @fprintf(ptr noundef %9, ptr noundef @.str.117) #12
  %11 = load ptr, ptr @stderr, align 8, !tbaa !17
  %12 = call i32 (ptr, ptr, ...) @fprintf(ptr noundef %11, ptr noundef @.str.116) #12
  %13 = load ptr, ptr @stderr, align 8, !tbaa !17
  %14 = call i32 (ptr, ptr, ...) @fprintf(ptr noundef %13, ptr noundef @.str.69) #12
  %15 = load ptr, ptr @stderr, align 8, !tbaa !17
  %16 = call i32 (ptr, ptr, ...) @fprintf(ptr noundef %15, ptr noundef @.str.118) #12
  %17 = load ptr, ptr @stderr, align 8, !tbaa !17
  %18 = call i32 (ptr, ptr, ...) @fprintf(ptr noundef %17, ptr noundef @.str.119) #12
  %19 = load ptr, ptr @stderr, align 8, !tbaa !17
  %20 = call i32 (ptr, ptr, ...) @fprintf(ptr noundef %19, ptr noundef @.str.120) #12
  %21 = load ptr, ptr @stderr, align 8, !tbaa !17
  %22 = call i32 (ptr, ptr, ...) @fprintf(ptr noundef %21, ptr noundef @.str.121, ptr noundef @.str.3) #12
  %23 = load ptr, ptr @stderr, align 8, !tbaa !17
  %24 = call i32 (ptr, ptr, ...) @fprintf(ptr noundef %23, ptr noundef @.str.122, ptr noundef @.str.123) #12
  %25 = load ptr, ptr @stderr, align 8, !tbaa !17
  %26 = call i32 (ptr, ptr, ...) @fprintf(ptr noundef %25, ptr noundef @.str.124) #12
  %27 = load ptr, ptr @stderr, align 8, !tbaa !17
  %28 = call i32 (ptr, ptr, ...) @fprintf(ptr noundef %27, ptr noundef @.str.125) #12
  %29 = load ptr, ptr @stderr, align 8, !tbaa !17
  %30 = call i32 (ptr, ptr, ...) @fprintf(ptr noundef %29, ptr noundef @.str.126) #12
  %31 = load ptr, ptr @stderr, align 8, !tbaa !17
  %32 = call i32 (ptr, ptr, ...) @fprintf(ptr noundef %31, ptr noundef @.str.127, ptr noundef @.str.59) #12
  %33 = load ptr, ptr @stderr, align 8, !tbaa !17
  %34 = call i32 (ptr, ptr, ...) @fprintf(ptr noundef %33, ptr noundef @.str.128, ptr noundef @.str.59) #12
  %35 = load ptr, ptr @stderr, align 8, !tbaa !17
  %36 = call i32 (ptr, ptr, ...) @fprintf(ptr noundef %35, ptr noundef @.str.129, ptr noundef @.str.59) #12
  %37 = load ptr, ptr @stderr, align 8, !tbaa !17
  %38 = call i32 (ptr, ptr, ...) @fprintf(ptr noundef %37, ptr noundef @.str.69) #12
  %39 = load ptr, ptr @stderr, align 8, !tbaa !17
  %40 = call i32 (ptr, ptr, ...) @fprintf(ptr noundef %39, ptr noundef @.str.130) #12
  %41 = load ptr, ptr @stderr, align 8, !tbaa !17
  %42 = call i32 (ptr, ptr, ...) @fprintf(ptr noundef %41, ptr noundef @.str.131) #12
  %43 = load ptr, ptr @stderr, align 8, !tbaa !17
  %44 = call i32 (ptr, ptr, ...) @fprintf(ptr noundef %43, ptr noundef @.str.132, i32 noundef 1) #12
  %45 = load ptr, ptr @stderr, align 8, !tbaa !17
  %46 = call i32 (ptr, ptr, ...) @fprintf(ptr noundef %45, ptr noundef @.str.133) #12
  %47 = load ptr, ptr @stderr, align 8, !tbaa !17
  %48 = call i32 (ptr, ptr, ...) @fprintf(ptr noundef %47, ptr noundef @.str.134, i32 noundef 12) #12
  %49 = load ptr, ptr @stderr, align 8, !tbaa !17
  %50 = call i32 (ptr, ptr, ...) @fprintf(ptr noundef %49, ptr noundef @.str.135, i32 noundef 12) #12
  %51 = load ptr, ptr @stderr, align 8, !tbaa !17
  %52 = call i32 (ptr, ptr, ...) @fprintf(ptr noundef %51, ptr noundef @.str.136) #12
  %53 = load ptr, ptr @stderr, align 8, !tbaa !17
  %54 = call i32 (ptr, ptr, ...) @fprintf(ptr noundef %53, ptr noundef @.str.69) #12
  %55 = load ptr, ptr @stderr, align 8, !tbaa !17
  %56 = call i32 (ptr, ptr, ...) @fprintf(ptr noundef %55, ptr noundef @.str.137) #12
  %57 = load ptr, ptr @stderr, align 8, !tbaa !17
  %58 = call i32 (ptr, ptr, ...) @fprintf(ptr noundef %57, ptr noundef @.str.138) #12
  %59 = load ptr, ptr @stderr, align 8, !tbaa !17
  %60 = call i32 (ptr, ptr, ...) @fprintf(ptr noundef %59, ptr noundef @.str.139) #12
  %61 = load ptr, ptr @stderr, align 8, !tbaa !17
  %62 = load ptr, ptr %2, align 8, !tbaa !11
  %63 = call i32 (ptr, ptr, ...) @fprintf(ptr noundef %61, ptr noundef @.str.140, ptr noundef %62) #12
  %64 = load ptr, ptr @stderr, align 8, !tbaa !17
  %65 = call i32 (ptr, ptr, ...) @fprintf(ptr noundef %64, ptr noundef @.str.141) #12
  %66 = load ptr, ptr @stderr, align 8, !tbaa !17
  %67 = call i32 (ptr, ptr, ...) @fprintf(ptr noundef %66, ptr noundef @.str.69) #12
  %68 = load ptr, ptr @stderr, align 8, !tbaa !17
  %69 = call i32 (ptr, ptr, ...) @fprintf(ptr noundef %68, ptr noundef @.str.142) #12
  %70 = load ptr, ptr @stderr, align 8, !tbaa !17
  %71 = call i32 (ptr, ptr, ...) @fprintf(ptr noundef %70, ptr noundef @.str.143) #12
  %72 = load ptr, ptr @stderr, align 8, !tbaa !17
  %73 = call i32 (ptr, ptr, ...) @fprintf(ptr noundef %72, ptr noundef @.str.144) #12
  %74 = load ptr, ptr @stderr, align 8, !tbaa !17
  %75 = load ptr, ptr %2, align 8, !tbaa !11
  %76 = call i32 (ptr, ptr, ...) @fprintf(ptr noundef %74, ptr noundef @.str.145, ptr noundef %75) #12
  %77 = load ptr, ptr @stderr, align 8, !tbaa !17
  %78 = call i32 (ptr, ptr, ...) @fprintf(ptr noundef %77, ptr noundef @.str.69) #12
  %79 = load ptr, ptr @stderr, align 8, !tbaa !17
  %80 = call i32 (ptr, ptr, ...) @fprintf(ptr noundef %79, ptr noundef @.str.146) #12
  %81 = load ptr, ptr @stderr, align 8, !tbaa !17
  %82 = call i32 (ptr, ptr, ...) @fprintf(ptr noundef %81, ptr noundef @.str.147) #12
  %83 = load ptr, ptr @stderr, align 8, !tbaa !17
  %84 = call i32 (ptr, ptr, ...) @fprintf(ptr noundef %83, ptr noundef @.str.148) #12
  %85 = load ptr, ptr @stderr, align 8, !tbaa !17
  %86 = load ptr, ptr %2, align 8, !tbaa !11
  %87 = call i32 (ptr, ptr, ...) @fprintf(ptr noundef %85, ptr noundef @.str.149, ptr noundef %86) #12
  %88 = load ptr, ptr @stderr, align 8, !tbaa !17
  %89 = call i32 (ptr, ptr, ...) @fprintf(ptr noundef %88, ptr noundef @.str.150) #12
  %90 = load ptr, ptr @stderr, align 8, !tbaa !17
  %91 = load ptr, ptr %2, align 8, !tbaa !11
  %92 = call i32 (ptr, ptr, ...) @fprintf(ptr noundef %90, ptr noundef @.str.151, ptr noundef %91) #12
  %93 = load ptr, ptr @stderr, align 8, !tbaa !17
  %94 = call i32 (ptr, ptr, ...) @fprintf(ptr noundef %93, ptr noundef @.str.69) #12
  %95 = load ptr, ptr @stderr, align 8, !tbaa !17
  %96 = load ptr, ptr %2, align 8, !tbaa !11
  %97 = call i32 (ptr, ptr, ...) @fprintf(ptr noundef %95, ptr noundef @.str.152, ptr noundef %96) #12
  %98 = load ptr, ptr @stderr, align 8, !tbaa !17
  %99 = call i32 (ptr, ptr, ...) @fprintf(ptr noundef %98, ptr noundef @.str.153) #12
  %100 = load ptr, ptr @stderr, align 8, !tbaa !17
  %101 = call i32 (ptr, ptr, ...) @fprintf(ptr noundef %100, ptr noundef @.str.154) #12
  %102 = load ptr, ptr @stderr, align 8, !tbaa !17
  %103 = load ptr, ptr %2, align 8, !tbaa !11
  %104 = call i32 (ptr, ptr, ...) @fprintf(ptr noundef %102, ptr noundef @.str.155, ptr noundef %103) #12
  %105 = load i32, ptr @g_lz4c_legacy_commands, align 4, !tbaa !4
  %106 = icmp ne i32 %105, 0
  br i1 %106, label %107, label %128

107:                                              ; preds = %1
  %108 = load ptr, ptr @stderr, align 8, !tbaa !17
  %109 = call i32 (ptr, ptr, ...) @fprintf(ptr noundef %108, ptr noundef @.str.69) #12
  %110 = load ptr, ptr @stderr, align 8, !tbaa !17
  %111 = call i32 (ptr, ptr, ...) @fprintf(ptr noundef %110, ptr noundef @.str.156) #12
  %112 = load ptr, ptr @stderr, align 8, !tbaa !17
  %113 = call i32 (ptr, ptr, ...) @fprintf(ptr noundef %112, ptr noundef @.str.157) #12
  %114 = load ptr, ptr @stderr, align 8, !tbaa !17
  %115 = call i32 (ptr, ptr, ...) @fprintf(ptr noundef %114, ptr noundef @.str.158) #12
  %116 = load ptr, ptr @stderr, align 8, !tbaa !17
  %117 = load ptr, ptr %2, align 8, !tbaa !11
  %118 = call i32 (ptr, ptr, ...) @fprintf(ptr noundef %116, ptr noundef @.str.159, ptr noundef %117) #12
  %119 = load ptr, ptr @stderr, align 8, !tbaa !17
  %120 = call i32 (ptr, ptr, ...) @fprintf(ptr noundef %119, ptr noundef @.str.160) #12
  %121 = load ptr, ptr @stderr, align 8, !tbaa !17
  %122 = call i32 (ptr, ptr, ...) @fprintf(ptr noundef %121, ptr noundef @.str.161) #12
  %123 = load ptr, ptr @stderr, align 8, !tbaa !17
  %124 = load ptr, ptr %2, align 8, !tbaa !11
  %125 = call i32 (ptr, ptr, ...) @fprintf(ptr noundef %123, ptr noundef @.str.162, ptr noundef %124) #12
  %126 = load ptr, ptr @stderr, align 8, !tbaa !17
  %127 = call i32 (ptr, ptr, ...) @fprintf(ptr noundef %126, ptr noundef @.str.163) #12
  br label %128

128:                                              ; preds = %107, %1
  ret i32 0
}