; Function Attrs: cold nounwind uwtable
define internal fastcc void @usage_longhelp(ptr noundef %0) unnamed_addr #7 {
  tail call fastcc void @usage_advanced(ptr noundef %0)
  %2 = load ptr, ptr @stderr, align 8, !tbaa !11
  %fputc = tail call i32 @fputc(i32 10, ptr %2)
  %3 = load ptr, ptr @stderr, align 8, !tbaa !11
  %4 = tail call i64 @fwrite(ptr nonnull @.str.116, i64 29, i64 1, ptr %3) #26
  %5 = load ptr, ptr @stderr, align 8, !tbaa !11
  %6 = tail call i64 @fwrite(ptr nonnull @.str.117, i64 29, i64 1, ptr %5) #26
  %7 = load ptr, ptr @stderr, align 8, !tbaa !11
  %8 = tail call i64 @fwrite(ptr nonnull @.str.116, i64 29, i64 1, ptr %7) #26
  %9 = load ptr, ptr @stderr, align 8, !tbaa !11
  %fputc9 = tail call i32 @fputc(i32 10, ptr %9)
  %10 = load ptr, ptr @stderr, align 8, !tbaa !11
  %11 = tail call i64 @fwrite(ptr nonnull @.str.118, i64 34, i64 1, ptr %10) #26
  %12 = load ptr, ptr @stderr, align 8, !tbaa !11
  %13 = tail call i64 @fwrite(ptr nonnull @.str.119, i64 34, i64 1, ptr %12) #26
  %14 = load ptr, ptr @stderr, align 8, !tbaa !11
  %15 = tail call i64 @fwrite(ptr nonnull @.str.120, i64 23, i64 1, ptr %14) #26
  %16 = load ptr, ptr @stderr, align 8, !tbaa !11
  %17 = tail call i32 (ptr, ptr, ...) @fprintf(ptr noundef %16, ptr noundef nonnull @.str.121, ptr noundef nonnull @.str.3) #23
  %18 = load ptr, ptr @stderr, align 8, !tbaa !11
  %19 = tail call i32 (ptr, ptr, ...) @fprintf(ptr noundef %18, ptr noundef nonnull @.str.122, ptr noundef nonnull @.str.123) #23
  %20 = load ptr, ptr @stderr, align 8, !tbaa !11
  %21 = tail call i64 @fwrite(ptr nonnull @.str.124, i64 76, i64 1, ptr %20) #26
  %22 = load ptr, ptr @stderr, align 8, !tbaa !11
  %23 = tail call i64 @fwrite(ptr nonnull @.str.125, i64 66, i64 1, ptr %22) #26
  %24 = load ptr, ptr @stderr, align 8, !tbaa !11
  %25 = tail call i64 @fwrite(ptr nonnull @.str.126, i64 36, i64 1, ptr %24) #26
  %26 = load ptr, ptr @stderr, align 8, !tbaa !11
  %27 = tail call i32 (ptr, ptr, ...) @fprintf(ptr noundef %26, ptr noundef nonnull @.str.127, ptr noundef nonnull @.str.59) #23
  %28 = load ptr, ptr @stderr, align 8, !tbaa !11
  %29 = tail call i32 (ptr, ptr, ...) @fprintf(ptr noundef %28, ptr noundef nonnull @.str.128, ptr noundef nonnull @.str.59) #23
  %30 = load ptr, ptr @stderr, align 8, !tbaa !11
  %31 = tail call i32 (ptr, ptr, ...) @fprintf(ptr noundef %30, ptr noundef nonnull @.str.129, ptr noundef nonnull @.str.59) #23
  %32 = load ptr, ptr @stderr, align 8, !tbaa !11
  %fputc10 = tail call i32 @fputc(i32 10, ptr %32)
  %33 = load ptr, ptr @stderr, align 8, !tbaa !11
  %34 = tail call i64 @fwrite(ptr nonnull @.str.130, i64 22, i64 1, ptr %33) #26
  %35 = load ptr, ptr @stderr, align 8, !tbaa !11
  %36 = tail call i64 @fwrite(ptr nonnull @.str.131, i64 22, i64 1, ptr %35) #26
  %37 = load ptr, ptr @stderr, align 8, !tbaa !11
  %38 = tail call i32 (ptr, ptr, ...) @fprintf(ptr noundef %37, ptr noundef nonnull @.str.132, i32 noundef 1) #23
  %39 = load ptr, ptr @stderr, align 8, !tbaa !11
  %40 = tail call i64 @fwrite(ptr nonnull @.str.133, i64 25, i64 1, ptr %39) #26
  %41 = load ptr, ptr @stderr, align 8, !tbaa !11
  %42 = tail call i32 (ptr, ptr, ...) @fprintf(ptr noundef %41, ptr noundef nonnull @.str.134, i32 noundef 12) #23
  %43 = load ptr, ptr @stderr, align 8, !tbaa !11
  %44 = tail call i32 (ptr, ptr, ...) @fprintf(ptr noundef %43, ptr noundef nonnull @.str.135, i32 noundef 12) #23
  %45 = load ptr, ptr @stderr, align 8, !tbaa !11
  %46 = tail call i64 @fwrite(ptr nonnull @.str.136, i64 75, i64 1, ptr %45) #26
  %47 = load ptr, ptr @stderr, align 8, !tbaa !11
  %fputc11 = tail call i32 @fputc(i32 10, ptr %47)
  %48 = load ptr, ptr @stderr, align 8, !tbaa !11
  %49 = tail call i64 @fwrite(ptr nonnull @.str.137, i64 33, i64 1, ptr %48) #26
  %50 = load ptr, ptr @stderr, align 8, !tbaa !11
  %51 = tail call i64 @fwrite(ptr nonnull @.str.138, i64 33, i64 1, ptr %50) #26
  %52 = load ptr, ptr @stderr, align 8, !tbaa !11
  %53 = tail call i64 @fwrite(ptr nonnull @.str.139, i64 67, i64 1, ptr %52) #26
  %54 = load ptr, ptr @stderr, align 8, !tbaa !11
  %55 = tail call i32 (ptr, ptr, ...) @fprintf(ptr noundef %54, ptr noundef nonnull @.str.140, ptr noundef %0) #23
  %56 = load ptr, ptr @stderr, align 8, !tbaa !11
  %57 = tail call i64 @fwrite(ptr nonnull @.str.141, i64 65, i64 1, ptr %56) #26
  %58 = load ptr, ptr @stderr, align 8, !tbaa !11
  %fputc12 = tail call i32 @fputc(i32 10, ptr %58)
  %59 = load ptr, ptr @stderr, align 8, !tbaa !11
  %60 = tail call i64 @fwrite(ptr nonnull @.str.142, i64 17, i64 1, ptr %59) #26
  %61 = load ptr, ptr @stderr, align 8, !tbaa !11
  %62 = tail call i64 @fwrite(ptr nonnull @.str.143, i64 17, i64 1, ptr %61) #26
  %63 = load ptr, ptr @stderr, align 8, !tbaa !11
  %64 = tail call i64 @fwrite(ptr nonnull @.str.144, i64 71, i64 1, ptr %63) #26
  %65 = load ptr, ptr @stderr, align 8, !tbaa !11
  %66 = tail call i32 (ptr, ptr, ...) @fprintf(ptr noundef %65, ptr noundef nonnull @.str.145, ptr noundef %0) #23
  %67 = load ptr, ptr @stderr, align 8, !tbaa !11
  %fputc13 = tail call i32 @fputc(i32 10, ptr %67)
  %68 = load ptr, ptr @stderr, align 8, !tbaa !11
  %69 = tail call i64 @fwrite(ptr nonnull @.str.146, i64 49, i64 1, ptr %68) #26
  %70 = load ptr, ptr @stderr, align 8, !tbaa !11
  %71 = tail call i64 @fwrite(ptr nonnull @.str.147, i64 35, i64 1, ptr %70) #26
  %72 = load ptr, ptr @stderr, align 8, !tbaa !11
  %73 = tail call i64 @fwrite(ptr nonnull @.str.148, i64 77, i64 1, ptr %72) #26
  %74 = load ptr, ptr @stderr, align 8, !tbaa !11
  %75 = tail call i32 (ptr, ptr, ...) @fprintf(ptr noundef %74, ptr noundef nonnull @.str.149, ptr noundef %0) #23
  %76 = load ptr, ptr @stderr, align 8, !tbaa !11
  %77 = tail call i64 @fwrite(ptr nonnull @.str.150, i64 23, i64 1, ptr %76) #26
  %78 = load ptr, ptr @stderr, align 8, !tbaa !11
  %79 = tail call i32 (ptr, ptr, ...) @fprintf(ptr noundef %78, ptr noundef nonnull @.str.151, ptr noundef %0) #23
  %80 = load ptr, ptr @stderr, align 8, !tbaa !11
  %fputc14 = tail call i32 @fputc(i32 10, ptr %80)
  %81 = load ptr, ptr @stderr, align 8, !tbaa !11
  %82 = tail call i32 (ptr, ptr, ...) @fprintf(ptr noundef %81, ptr noundef nonnull @.str.152, ptr noundef %0) #23
  %83 = load ptr, ptr @stderr, align 8, !tbaa !11
  %84 = tail call i64 @fwrite(ptr nonnull @.str.153, i64 38, i64 1, ptr %83) #26
  %85 = load ptr, ptr @stderr, align 8, !tbaa !11
  %86 = tail call i64 @fwrite(ptr nonnull @.str.154, i64 69, i64 1, ptr %85) #26
  %87 = load ptr, ptr @stderr, align 8, !tbaa !11
  %88 = tail call i32 (ptr, ptr, ...) @fprintf(ptr noundef %87, ptr noundef nonnull @.str.155, ptr noundef %0) #23
  %.b = load i1, ptr @g_lz4c_legacy_commands, align 4
  br i1 %.b, label %89, label %107

89:                                               ; preds = %1
  %90 = load ptr, ptr @stderr, align 8, !tbaa !11
  %fputc15 = tail call i32 @fputc(i32 10, ptr %90)
  %91 = load ptr, ptr @stderr, align 8, !tbaa !11
  %92 = tail call i64 @fwrite(ptr nonnull @.str.156, i64 22, i64 1, ptr %91) #26
  %93 = load ptr, ptr @stderr, align 8, !tbaa !11
  %94 = tail call i64 @fwrite(ptr nonnull @.str.157, i64 47, i64 1, ptr %93) #26
  %95 = load ptr, ptr @stderr, align 8, !tbaa !11
  %96 = tail call i64 @fwrite(ptr nonnull @.str.158, i64 35, i64 1, ptr %95) #26
  %97 = load ptr, ptr @stderr, align 8, !tbaa !11
  %98 = tail call i32 (ptr, ptr, ...) @fprintf(ptr noundef %97, ptr noundef nonnull @.str.159, ptr noundef %0) #23
  %99 = load ptr, ptr @stderr, align 8, !tbaa !11
  %100 = tail call i64 @fwrite(ptr nonnull @.str.160, i64 52, i64 1, ptr %99) #26
  %101 = load ptr, ptr @stderr, align 8, !tbaa !11
  %102 = tail call i64 @fwrite(ptr nonnull @.str.161, i64 27, i64 1, ptr %101) #26
  %103 = load ptr, ptr @stderr, align 8, !tbaa !11
  %104 = tail call i32 (ptr, ptr, ...) @fprintf(ptr noundef %103, ptr noundef nonnull @.str.162, ptr noundef %0) #23
  %105 = load ptr, ptr @stderr, align 8, !tbaa !11
  %106 = tail call i64 @fwrite(ptr nonnull @.str.163, i64 36, i64 1, ptr %105) #26
  br label %107

107:                                              ; preds = %89, %1
  ret void
}